target datalayout = "e-m:e-p270:32:32-p271:32:32-p272:64:64-i64:64-i128:128-f80:128-n8:16:32:64-S128"
target triple = "x86_64-pc-linux-gnu"

%struct.timeout_params = type { i32, i8, i8, ptr, i64, i64, i32 }

@alarm_enabled = internal global i32 0, align 4
@num_active_timeouts = internal global i32 0, align 4
@all_timeouts = internal global [23 x %struct.timeout_params] zeroinitializer, align 16
@all_timeouts_initialized = internal global i8 0, align 1

; Function Attrs: nounwind uwtable
define dso_local void @InitializeTimeouts() #0 {
  %1 = alloca i32, align 4
  call void @llvm.lifetime.start.p0(i64 4, ptr %1) #6
  store volatile i32 0, ptr @alarm_enabled, align 4
  store volatile i32 0, ptr @num_active_timeouts, align 4
  store i32 0, ptr %1, align 4
  br label %2

2:                                                ; preds = %35, %0
  %3 = load i32, ptr %1, align 4
  %4 = icmp slt i32 %3, 23
  br i1 %4, label %5, label %38

5:                                                ; preds = %2
  %6 = load i32, ptr %1, align 4
  %7 = load i32, ptr %1, align 4
  %8 = sext i32 %7 to i64
  %9 = getelementptr inbounds [23 x %struct.timeout_params], ptr @all_timeouts, i64 0, i64 %8
  %10 = getelementptr inbounds nuw %struct.timeout_params, ptr %9, i32 0, i32 0
  store i32 %6, ptr %10, align 8
  %11 = load i32, ptr %1, align 4
  %12 = sext i32 %11 to i64
  %13 = getelementptr inbounds [23 x %struct.timeout_params], ptr @all_timeouts, i64 0, i64 %12
  %14 = getelementptr inbounds nuw %struct.timeout_params, ptr %13, i32 0, i32 1
  store volatile i8 0, ptr %14, align 4
  %15 = load i32, ptr %1, align 4
  %16 = sext i32 %15 to i64
  %17 = getelementptr inbounds [23 x %struct.timeout_params], ptr @all_timeouts, i64 0, i64 %16
  %18 = getelementptr inbounds nuw %struct.timeout_params, ptr %17, i32 0, i32 2
  store volatile i8 0, ptr %18, align 1
  %19 = load i32, ptr %1, align 4
  %20 = sext i32 %19 to i64
  %21 = getelementptr inbounds [23 x %struct.timeout_params], ptr @all_timeouts, i64 0, i64 %20
  %22 = getelementptr inbounds nuw %struct.timeout_params, ptr %21, i32 0, i32 3
  store ptr null, ptr %22, align 8
  %23 = load i32, ptr %1, align 4
  %24 = sext i32 %23 to i64
  %25 = getelementptr inbounds [23 x %struct.timeout_params], ptr @all_timeouts, i64 0, i64 %24
  %26 = getelementptr inbounds nuw %struct.timeout_params, ptr %25, i32 0, i32 4
  store i64 0, ptr %26, align 8
  %27 = load i32, ptr %1, align 4
  %28 = sext i32 %27 to i64
  %29 = getelementptr inbounds [23 x %struct.timeout_params], ptr @all_timeouts, i64 0, i64 %28
  %30 = getelementptr inbounds nuw %struct.timeout_params, ptr %29, i32 0, i32 5
  store i64 0, ptr %30, align 8
  %31 = load i32, ptr %1, align 4
  %32 = sext i32 %31 to i64
  %33 = getelementptr inbounds [23 x %struct.timeout_params], ptr @all_timeouts, i64 0, i64 %32
  %34 = getelementptr inbounds nuw %struct.timeout_params, ptr %33, i32 0, i32 6
  store i32 0, ptr %34, align 8
  br label %35

35:                                               ; preds = %5
  %36 = load i32, ptr %1, align 4
  %37 = add i32 %36, 1
  store i32 %37, ptr %1, align 4
  br label %2, !llvm.loop !4

38:                                               ; preds = %2
  store i8 1, ptr @all_timeouts_initialized, align 1
  call void @pqsignal_be(i32 noundef 14, ptr noundef @handle_sig_alarm)
  call void @llvm.lifetime.end.p0(i64 4, ptr %1) #6
  ret void
}