; Function Attrs: nounwind uwtable
define dso_local void @InitializeTimeouts() local_unnamed_addr #0 {
  store volatile i32 0, ptr @alarm_enabled, align 4
  store volatile i32 0, ptr @num_active_timeouts, align 4
  br label %1

1:                                                ; preds = %0, %1
  %indvars.iv = phi i64 [ 0, %0 ], [ %indvars.iv.next, %1 ]
  %2 = getelementptr inbounds nuw [23 x %struct.timeout_params], ptr @all_timeouts, i64 0, i64 %indvars.iv
  %3 = trunc nuw nsw i64 %indvars.iv to i32
  store i32 %3, ptr %2, align 8
  %4 = getelementptr inbounds nuw i8, ptr %2, i64 4
  store volatile i8 0, ptr %4, align 4
  %5 = getelementptr inbounds nuw i8, ptr %2, i64 5
  store volatile i8 0, ptr %5, align 1
  %6 = getelementptr inbounds nuw i8, ptr %2, i64 8
  %indvars.iv.next = add nuw nsw i64 %indvars.iv, 1
  %exitcond.not = icmp eq i64 %indvars.iv.next, 23
  tail call void @llvm.memset.p0.i64(ptr noundef nonnull align 8 dereferenceable(28) %6, i8 0, i64 28, i1 false)
  br i1 %exitcond.not, label %7, label %1, !llvm.loop !4

7:                                                ; preds = %1
  store i1 true, ptr @all_timeouts_initialized, align 1
  tail call void @pqsignal_be(i32 noundef 14, ptr noundef nonnull @handle_sig_alarm) #10
  ret void
}